target datalayout = "e-m:e-p270:32:32-p271:32:32-p272:64:64-i64:64-i128:128-f80:128-n8:16:32:64-S128"
target triple = "x86_64-pc-linux-gnu"

%struct._value_string = type { i32, ptr }

@hf_opcua_status_StructureChanged = internal global i32 0, align 4
@hf_opcua_status_SemanticsChanged = internal global i32 0, align 4
@hf_opcua_status_InfoBit_Limit_Overflow = internal global i32 0, align 4
@hf_opcua_status_InfoBit_Historian_Partial = internal global i32 0, align 4
@hf_opcua_status_InfoBit_Historian_ExtraData = internal global i32 0, align 4
@hf_opcua_status_InfoBit_Historian_MultiValue = internal global i32 0, align 4
@hf_opcua_status_InfoType = internal global i32 0, align 4
@hf_opcua_status_Limit = internal global i32 0, align 4
@hf_opcua_status_Historian = internal global i32 0, align 4
@g_statusCodes = external constant [0 x %struct._value_string], align 8
@.str.171 = private unnamed_addr constant [20 x i8] c"Unknown Status Code\00", align 1
@.str.172 = private unnamed_addr constant [6 x i8] c" [%s]\00", align 1
@ett_opcua_statuscode = internal global i32 0, align 4
@ett_opcua_statuscode_info = internal global i32 0, align 4

; Function Attrs: null_pointer_is_valid sspstrong uwtable
define hidden ptr @parseStatusCode(ptr noundef %0, ptr noundef %1, ptr noundef %2, ptr noundef %3, i32 noundef %4) #0 {
  %6 = alloca ptr, align 8
  %7 = alloca ptr, align 8
  %8 = alloca ptr, align 8
  %9 = alloca ptr, align 8
  %10 = alloca i32, align 4
  %11 = alloca ptr, align 8
  %12 = alloca i32, align 4
  %13 = alloca ptr, align 8
  %14 = alloca i32, align 4
  %15 = alloca ptr, align 8
  %16 = alloca ptr, align 8
  %17 = alloca ptr, align 8
  store ptr %0, ptr %6, align 8
  store ptr %1, ptr %7, align 8
  store ptr %2, ptr %8, align 8
  store ptr %3, ptr %9, align 8
  store i32 %4, ptr %10, align 4
  call void @llvm.lifetime.start.p0(i64 8, ptr %11) #3
  store ptr null, ptr %11, align 8
  call void @llvm.lifetime.start.p0(i64 4, ptr %12) #3
  store i32 0, ptr %12, align 4
  call void @llvm.lifetime.start.p0(i64 8, ptr %13) #3
  store ptr null, ptr %13, align 8
  %18 = load ptr, ptr %6, align 8
  %19 = load i32, ptr %10, align 4
  %20 = load ptr, ptr %7, align 8
  %21 = load ptr, ptr %9, align 8
  %22 = load i32, ptr %21, align 4
  %23 = call ptr @proto_tree_add_item(ptr noundef %18, i32 noundef %19, ptr noundef %20, i32 noundef %22, i32 noundef 4, i32 noundef -2147483648)
  store ptr %23, ptr %11, align 8
  %24 = load ptr, ptr %7, align 8
  %25 = load ptr, ptr %9, align 8
  %26 = load i32, ptr %25, align 4
  %27 = call i32 @tvb_get_letohl(ptr noundef %24, i32 noundef %26)
  store i32 %27, ptr %12, align 4
  %28 = load i32, ptr %12, align 4
  %29 = and i32 %28, -65536
  %30 = call ptr @val_to_str_const(i32 noundef %29, ptr noundef @g_statusCodes, ptr noundef @.str.171)
  store ptr %30, ptr %13, align 8
  %31 = load ptr, ptr %11, align 8
  %32 = load ptr, ptr %13, align 8
  call void (ptr, ptr, ...) @proto_item_append_text(ptr noundef %31, ptr noundef @.str.172, ptr noundef %32)
  %33 = load i32, ptr %12, align 4
  %34 = and i32 %33, 65535
  %35 = icmp ne i32 %34, 0
  br i1 %35, label %36, label %95

36:                                               ; preds = %5
  call void @llvm.lifetime.start.p0(i64 4, ptr %14) #3
  %37 = load ptr, ptr %9, align 8
  %38 = load i32, ptr %37, align 4
  store i32 %38, ptr %14, align 4
  call void @llvm.lifetime.start.p0(i64 8, ptr %15) #3
  call void @llvm.lifetime.start.p0(i64 8, ptr %16) #3
  %39 = load ptr, ptr %11, align 8
  %40 = load i32, ptr @ett_opcua_statuscode, align 4
  %41 = call ptr @proto_item_add_subtree(ptr noundef %39, i32 noundef %40)
  store ptr %41, ptr %15, align 8
  %42 = load ptr, ptr %15, align 8
  %43 = load i32, ptr @hf_opcua_status_StructureChanged, align 4
  %44 = load ptr, ptr %7, align 8
  %45 = load i32, ptr %14, align 4
  %46 = call ptr @proto_tree_add_item(ptr noundef %42, i32 noundef %43, ptr noundef %44, i32 noundef %45, i32 noundef 2, i32 noundef -2147483648)
  %47 = load ptr, ptr %15, align 8
  %48 = load i32, ptr @hf_opcua_status_SemanticsChanged, align 4
  %49 = load ptr, ptr %7, align 8
  %50 = load i32, ptr %14, align 4
  %51 = call ptr @proto_tree_add_item(ptr noundef %47, i32 noundef %48, ptr noundef %49, i32 noundef %50, i32 noundef 2, i32 noundef -2147483648)
  %52 = load ptr, ptr %15, align 8
  %53 = load i32, ptr @hf_opcua_status_InfoType, align 4
  %54 = load ptr, ptr %7, align 8
  %55 = load i32, ptr %14, align 4
  %56 = call ptr @proto_tree_add_item(ptr noundef %52, i32 noundef %53, ptr noundef %54, i32 noundef %55, i32 noundef 2, i32 noundef -2147483648)
  store ptr %56, ptr %16, align 8
  %57 = load i32, ptr %12, align 4
  %58 = and i32 %57, 3072
  switch i32 %58, label %93 [
    i32 1024, label %59
  ]

59:                                               ; preds = %36
  call void @llvm.lifetime.start.p0(i64 8, ptr %17) #3
  %60 = load ptr, ptr %16, align 8
  %61 = load i32, ptr @ett_opcua_statuscode_info, align 4
  %62 = call ptr @proto_item_add_subtree(ptr noundef %60, i32 noundef %61)
  store ptr %62, ptr %17, align 8
  %63 = load ptr, ptr %17, align 8
  %64 = load i32, ptr @hf_opcua_status_Limit, align 4
  %65 = load ptr, ptr %7, align 8
  %66 = load i32, ptr %14, align 4
  %67 = call ptr @proto_tree_add_item(ptr noundef %63, i32 noundef %64, ptr noundef %65, i32 noundef %66, i32 noundef 2, i32 noundef -2147483648)
  %68 = load ptr, ptr %17, align 8
  %69 = load i32, ptr @hf_opcua_status_InfoBit_Limit_Overflow, align 4
  %70 = load ptr, ptr %7, align 8
  %71 = load i32, ptr %14, align 4
  %72 = call ptr @proto_tree_add_item(ptr noundef %68, i32 noundef %69, ptr noundef %70, i32 noundef %71, i32 noundef 2, i32 noundef -2147483648)
  %73 = load ptr, ptr %17, align 8
  %74 = load i32, ptr @hf_opcua_status_InfoBit_Historian_MultiValue, align 4
  %75 = load ptr, ptr %7, align 8
  %76 = load i32, ptr %14, align 4
  %77 = call ptr @proto_tree_add_item(ptr noundef %73, i32 noundef %74, ptr noundef %75, i32 noundef %76, i32 noundef 2, i32 noundef -2147483648)
  %78 = load ptr, ptr %17, align 8
  %79 = load i32, ptr @hf_opcua_status_InfoBit_Historian_ExtraData, align 4
  %80 = load ptr, ptr %7, align 8
  %81 = load i32, ptr %14, align 4
  %82 = call ptr @proto_tree_add_item(ptr noundef %78, i32 noundef %79, ptr noundef %80, i32 noundef %81, i32 noundef 2, i32 noundef -2147483648)
  %83 = load ptr, ptr %17, align 8
  %84 = load i32, ptr @hf_opcua_status_InfoBit_Historian_Partial, align 4
  %85 = load ptr, ptr %7, align 8
  %86 = load i32, ptr %14, align 4
  %87 = call ptr @proto_tree_add_item(ptr noundef %83, i32 noundef %84, ptr noundef %85, i32 noundef %86, i32 noundef 2, i32 noundef -2147483648)
  %88 = load ptr, ptr %17, align 8
  %89 = load i32, ptr @hf_opcua_status_Historian, align 4
  %90 = load ptr, ptr %7, align 8
  %91 = load i32, ptr %14, align 4
  %92 = call ptr @proto_tree_add_item(ptr noundef %88, i32 noundef %89, ptr noundef %90, i32 noundef %91, i32 noundef 2, i32 noundef -2147483648)
  call void @llvm.lifetime.end.p0(i64 8, ptr %17) #3
  br label %93

93:                                               ; preds = %36, %59
  br label %94

94:                                               ; preds = %93
  call void @llvm.lifetime.end.p0(i64 8, ptr %16) #3
  call void @llvm.lifetime.end.p0(i64 8, ptr %15) #3
  call void @llvm.lifetime.end.p0(i64 4, ptr %14) #3
  br label %95

95:                                               ; preds = %94, %5
  %96 = load ptr, ptr %9, align 8
  %97 = load i32, ptr %96, align 4
  %98 = add i32 %97, 4
  store i32 %98, ptr %96, align 4
  %99 = load ptr, ptr %11, align 8
  call void @llvm.lifetime.end.p0(i64 8, ptr %13) #3
  call void @llvm.lifetime.end.p0(i64 4, ptr %12) #3
  call void @llvm.lifetime.end.p0(i64 8, ptr %11) #3
  ret ptr %99
}