; Function Attrs: null_pointer_is_valid sspstrong uwtable
define hidden ptr @parseStatusCode(ptr noundef %0, ptr noundef %1, ptr readnone captures(none) %2, ptr noundef captures(none) %3, i32 noundef %4) #0 {
  %6 = load i32, ptr %3, align 4
  %7 = tail call ptr @proto_tree_add_item(ptr noundef %0, i32 noundef %4, ptr noundef %1, i32 noundef %6, i32 noundef 4, i32 noundef -2147483648)
  %8 = load i32, ptr %3, align 4
  %9 = tail call i32 @tvb_get_letohl(ptr noundef %1, i32 noundef %8)
  %10 = and i32 %9, -65536
  %11 = tail call ptr @val_to_str_const(i32 noundef %10, ptr noundef nonnull @g_statusCodes, ptr noundef nonnull @.str.171)
  tail call void (ptr, ptr, ...) @proto_item_append_text(ptr noundef %7, ptr noundef nonnull @.str.172, ptr noundef %11)
  %12 = and i32 %9, 65535
  %.not = icmp eq i32 %12, 0
  br i1 %.not, label %39, label %13

13:                                               ; preds = %5
  %14 = load i32, ptr %3, align 4
  %15 = load i32, ptr @ett_opcua_statuscode, align 4
  %16 = tail call ptr @proto_item_add_subtree(ptr noundef %7, i32 noundef %15)
  %17 = load i32, ptr @hf_opcua_status_StructureChanged, align 4
  %18 = tail call ptr @proto_tree_add_item(ptr noundef %16, i32 noundef %17, ptr noundef %1, i32 noundef %14, i32 noundef 2, i32 noundef -2147483648)
  %19 = load i32, ptr @hf_opcua_status_SemanticsChanged, align 4
  %20 = tail call ptr @proto_tree_add_item(ptr noundef %16, i32 noundef %19, ptr noundef %1, i32 noundef %14, i32 noundef 2, i32 noundef -2147483648)
  %21 = load i32, ptr @hf_opcua_status_InfoType, align 4
  %22 = tail call ptr @proto_tree_add_item(ptr noundef %16, i32 noundef %21, ptr noundef %1, i32 noundef %14, i32 noundef 2, i32 noundef -2147483648)
  %23 = and i32 %9, 3072
  %cond = icmp eq i32 %23, 1024
  br i1 %cond, label %24, label %39

24:                                               ; preds = %13
  %25 = load i32, ptr @ett_opcua_statuscode_info, align 4
  %26 = tail call ptr @proto_item_add_subtree(ptr noundef %22, i32 noundef %25)
  %27 = load i32, ptr @hf_opcua_status_Limit, align 4
  %28 = tail call ptr @proto_tree_add_item(ptr noundef %26, i32 noundef %27, ptr noundef %1, i32 noundef %14, i32 noundef 2, i32 noundef -2147483648)
  %29 = load i32, ptr @hf_opcua_status_InfoBit_Limit_Overflow, align 4
  %30 = tail call ptr @proto_tree_add_item(ptr noundef %26, i32 noundef %29, ptr noundef %1, i32 noundef %14, i32 noundef 2, i32 noundef -2147483648)
  %31 = load i32, ptr @hf_opcua_status_InfoBit_Historian_MultiValue, align 4
  %32 = tail call ptr @proto_tree_add_item(ptr noundef %26, i32 noundef %31, ptr noundef %1, i32 noundef %14, i32 noundef 2, i32 noundef -2147483648)
  %33 = load i32, ptr @hf_opcua_status_InfoBit_Historian_ExtraData, align 4
  %34 = tail call ptr @proto_tree_add_item(ptr noundef %26, i32 noundef %33, ptr noundef %1, i32 noundef %14, i32 noundef 2, i32 noundef -2147483648)
  %35 = load i32, ptr @hf_opcua_status_InfoBit_Historian_Partial, align 4
  %36 = tail call ptr @proto_tree_add_item(ptr noundef %26, i32 noundef %35, ptr noundef %1, i32 noundef %14, i32 noundef 2, i32 noundef -2147483648)
  %37 = load i32, ptr @hf_opcua_status_Historian, align 4
  %38 = tail call ptr @proto_tree_add_item(ptr noundef %26, i32 noundef %37, ptr noundef %1, i32 noundef %14, i32 noundef 2, i32 noundef -2147483648)
  br label %39

39:                                               ; preds = %13, %24, %5
  %40 = load i32, ptr %3, align 4
  %41 = add i32 %40, 4
  store i32 %41, ptr %3, align 4
  ret ptr %7
}